; Function Attrs: nounwind uwtable
define dso_local ptr @PyPickleBuffer_FromObject(ptr noundef %0) local_unnamed_addr #0 {
  %2 = load ptr, ptr getelementptr inbounds nuw (i8, ptr @PyPickleBuffer_Type, i64 304), align 8, !tbaa !4
  %3 = tail call ptr %2(ptr noundef nonnull @PyPickleBuffer_Type, i64 noundef 0) #5
  %4 = icmp eq ptr %3, null
  br i1 %4, label %Py_DECREF.exit, label %5

5:                                                ; preds = %1
  %6 = getelementptr inbounds nuw i8, ptr %3, i64 16
  %7 = getelementptr inbounds nuw i8, ptr %3, i64 24
  store ptr null, ptr %7, align 8, !tbaa !20
  %8 = getelementptr inbounds nuw i8, ptr %3, i64 96
  store ptr null, ptr %8, align 8, !tbaa !24
  %9 = tail call i32 @PyObject_GetBuffer(ptr noundef %0, ptr noundef nonnull %6, i32 noundef 284) #5
  %10 = icmp slt i32 %9, 0
  br i1 %10, label %11, label %Py_DECREF.exit

11:                                               ; preds = %5
  %12 = load i32, ptr %3, align 8, !tbaa !25
  %.not.i = icmp sgt i32 %12, -1
  br i1 %.not.i, label %13, label %Py_DECREF.exit

13:                                               ; preds = %11
  %14 = add nsw i32 %12, -1
  store i32 %14, ptr %3, align 8, !tbaa !25
  %15 = icmp eq i32 %14, 0
  br i1 %15, label %16, label %Py_DECREF.exit

16:                                               ; preds = %13
  tail call void @_Py_Dealloc(ptr noundef nonnull %3) #5
  br label %Py_DECREF.exit

Py_DECREF.exit:                                   ; preds = %16, %13, %11, %5, %1
  %.0 = phi ptr [ null, %1 ], [ %3, %5 ], [ null, %11 ], [ null, %13 ], [ null, %16 ]
  ret ptr %.0
}